
obj/main.elf:     file format elf32-avr


Disassembly of section .text:

00000000 <__vectors>:
__vectors():
   0:	0c 94 72 00 	jmp	0xe4	; 0xe4 <__ctors_end>
   4:	0c 94 ad 00 	jmp	0x15a	; 0x15a <__vector_1>
   8:	0c 94 86 00 	jmp	0x10c	; 0x10c <__bad_interrupt>
   c:	0c 94 86 00 	jmp	0x10c	; 0x10c <__bad_interrupt>
  10:	0c 94 86 00 	jmp	0x10c	; 0x10c <__bad_interrupt>
  14:	0c 94 86 00 	jmp	0x10c	; 0x10c <__bad_interrupt>
  18:	0c 94 86 00 	jmp	0x10c	; 0x10c <__bad_interrupt>
  1c:	0c 94 86 00 	jmp	0x10c	; 0x10c <__bad_interrupt>
  20:	0c 94 86 00 	jmp	0x10c	; 0x10c <__bad_interrupt>
  24:	0c 94 86 00 	jmp	0x10c	; 0x10c <__bad_interrupt>
  28:	0c 94 86 00 	jmp	0x10c	; 0x10c <__bad_interrupt>
  2c:	0c 94 86 00 	jmp	0x10c	; 0x10c <__bad_interrupt>
  30:	0c 94 86 00 	jmp	0x10c	; 0x10c <__bad_interrupt>
  34:	0c 94 86 00 	jmp	0x10c	; 0x10c <__bad_interrupt>
  38:	0c 94 86 00 	jmp	0x10c	; 0x10c <__bad_interrupt>
  3c:	0c 94 86 00 	jmp	0x10c	; 0x10c <__bad_interrupt>
  40:	0c 94 86 00 	jmp	0x10c	; 0x10c <__bad_interrupt>
  44:	0c 94 86 00 	jmp	0x10c	; 0x10c <__bad_interrupt>
  48:	0c 94 86 00 	jmp	0x10c	; 0x10c <__bad_interrupt>
  4c:	0c 94 86 00 	jmp	0x10c	; 0x10c <__bad_interrupt>
  50:	0c 94 86 00 	jmp	0x10c	; 0x10c <__bad_interrupt>
  54:	0c 94 86 00 	jmp	0x10c	; 0x10c <__bad_interrupt>
  58:	0c 94 86 00 	jmp	0x10c	; 0x10c <__bad_interrupt>
  5c:	0c 94 86 00 	jmp	0x10c	; 0x10c <__bad_interrupt>
  60:	0c 94 86 00 	jmp	0x10c	; 0x10c <__bad_interrupt>
  64:	0c 94 95 00 	jmp	0x12a	; 0x12a <__vector_25>
  68:	0c 94 86 00 	jmp	0x10c	; 0x10c <__bad_interrupt>
  6c:	0c 94 86 00 	jmp	0x10c	; 0x10c <__bad_interrupt>
  70:	0c 94 86 00 	jmp	0x10c	; 0x10c <__bad_interrupt>
  74:	0c 94 86 00 	jmp	0x10c	; 0x10c <__bad_interrupt>
  78:	0c 94 86 00 	jmp	0x10c	; 0x10c <__bad_interrupt>
  7c:	0c 94 86 00 	jmp	0x10c	; 0x10c <__bad_interrupt>
  80:	0c 94 86 00 	jmp	0x10c	; 0x10c <__bad_interrupt>
  84:	0c 94 86 00 	jmp	0x10c	; 0x10c <__bad_interrupt>
  88:	0c 94 86 00 	jmp	0x10c	; 0x10c <__bad_interrupt>
  8c:	0c 94 86 00 	jmp	0x10c	; 0x10c <__bad_interrupt>
  90:	0c 94 86 00 	jmp	0x10c	; 0x10c <__bad_interrupt>
  94:	0c 94 86 00 	jmp	0x10c	; 0x10c <__bad_interrupt>
  98:	0c 94 86 00 	jmp	0x10c	; 0x10c <__bad_interrupt>
  9c:	0c 94 86 00 	jmp	0x10c	; 0x10c <__bad_interrupt>
  a0:	0c 94 86 00 	jmp	0x10c	; 0x10c <__bad_interrupt>
  a4:	0c 94 86 00 	jmp	0x10c	; 0x10c <__bad_interrupt>
  a8:	0c 94 86 00 	jmp	0x10c	; 0x10c <__bad_interrupt>
  ac:	0c 94 86 00 	jmp	0x10c	; 0x10c <__bad_interrupt>
  b0:	0c 94 86 00 	jmp	0x10c	; 0x10c <__bad_interrupt>
  b4:	0c 94 86 00 	jmp	0x10c	; 0x10c <__bad_interrupt>
  b8:	0c 94 86 00 	jmp	0x10c	; 0x10c <__bad_interrupt>
  bc:	0c 94 86 00 	jmp	0x10c	; 0x10c <__bad_interrupt>
  c0:	0c 94 86 00 	jmp	0x10c	; 0x10c <__bad_interrupt>
  c4:	0c 94 86 00 	jmp	0x10c	; 0x10c <__bad_interrupt>
  c8:	0c 94 86 00 	jmp	0x10c	; 0x10c <__bad_interrupt>
  cc:	0c 94 86 00 	jmp	0x10c	; 0x10c <__bad_interrupt>
  d0:	0c 94 86 00 	jmp	0x10c	; 0x10c <__bad_interrupt>
  d4:	0c 94 86 00 	jmp	0x10c	; 0x10c <__bad_interrupt>
  d8:	0c 94 86 00 	jmp	0x10c	; 0x10c <__bad_interrupt>
  dc:	0c 94 86 00 	jmp	0x10c	; 0x10c <__bad_interrupt>
  e0:	0c 94 86 00 	jmp	0x10c	; 0x10c <__bad_interrupt>

000000e4 <__ctors_end>:
__trampolines_start():
  e4:	11 24       	eor	r1, r1
  e6:	1f be       	out	0x3f, r1	; 63
  e8:	cf ef       	ldi	r28, 0xFF	; 255
  ea:	d1 e2       	ldi	r29, 0x21	; 33
  ec:	de bf       	out	0x3e, r29	; 62
  ee:	cd bf       	out	0x3d, r28	; 61
  f0:	00 e0       	ldi	r16, 0x00	; 0
  f2:	0c bf       	out	0x3c, r16	; 60

000000f4 <__do_clear_bss>:
__do_clear_bss():
/home/jenkins-mingw32/workspace/avr-gcc-staging/label/Ubuntu14.04x64-mingw32/gcc-build/avr/avr6/libgcc/../../../../gcc/libgcc/config/avr/lib1funcs.S:2441
  f4:	22 e0       	ldi	r18, 0x02	; 2
/home/jenkins-mingw32/workspace/avr-gcc-staging/label/Ubuntu14.04x64-mingw32/gcc-build/avr/avr6/libgcc/../../../../gcc/libgcc/config/avr/lib1funcs.S:2442
  f6:	a0 e0       	ldi	r26, 0x00	; 0
/home/jenkins-mingw32/workspace/avr-gcc-staging/label/Ubuntu14.04x64-mingw32/gcc-build/avr/avr6/libgcc/../../../../gcc/libgcc/config/avr/lib1funcs.S:2443
  f8:	b2 e0       	ldi	r27, 0x02	; 2
/home/jenkins-mingw32/workspace/avr-gcc-staging/label/Ubuntu14.04x64-mingw32/gcc-build/avr/avr6/libgcc/../../../../gcc/libgcc/config/avr/lib1funcs.S:2444
  fa:	01 c0       	rjmp	.+2      	; 0xfe <.do_clear_bss_start>

000000fc <.do_clear_bss_loop>:
/home/jenkins-mingw32/workspace/avr-gcc-staging/label/Ubuntu14.04x64-mingw32/gcc-build/avr/avr6/libgcc/../../../../gcc/libgcc/config/avr/lib1funcs.S:2446
  fc:	1d 92       	st	X+, r1

000000fe <.do_clear_bss_start>:
/home/jenkins-mingw32/workspace/avr-gcc-staging/label/Ubuntu14.04x64-mingw32/gcc-build/avr/avr6/libgcc/../../../../gcc/libgcc/config/avr/lib1funcs.S:2448
  fe:	a1 30       	cpi	r26, 0x01	; 1
/home/jenkins-mingw32/workspace/avr-gcc-staging/label/Ubuntu14.04x64-mingw32/gcc-build/avr/avr6/libgcc/../../../../gcc/libgcc/config/avr/lib1funcs.S:2449
 100:	b2 07       	cpc	r27, r18
/home/jenkins-mingw32/workspace/avr-gcc-staging/label/Ubuntu14.04x64-mingw32/gcc-build/avr/avr6/libgcc/../../../../gcc/libgcc/config/avr/lib1funcs.S:2450
 102:	e1 f7       	brne	.-8      	; 0xfc <.do_clear_bss_loop>
.do_clear_bss_start():
 104:	0e 94 be 00 	call	0x17c	; 0x17c <main>
 108:	0c 94 e3 00 	jmp	0x1c6	; 0x1c6 <_exit>

0000010c <__bad_interrupt>:
__vector_38():
 10c:	0c 94 00 00 	jmp	0	; 0x0 <__vectors>

00000110 <init_interrupts()>:
_Z15init_interruptsv():
C:\Users\duan_\AVR\avr_vscode_template\examples\interrupts/src/main.c:21
#define BAUD_PRESCALER (((F_CPU / (BAUDRATE * 16UL))) - 1)

volatile unsigned char counter = 0;

void init_interrupts() {
	SETBIT(UCSR0B, RXCIE0);  // set RX recieve interrupt flag
 110:	e1 ec       	ldi	r30, 0xC1	; 193
 112:	f0 e0       	ldi	r31, 0x00	; 0
 114:	80 81       	ld	r24, Z
 116:	80 68       	ori	r24, 0x80	; 128
 118:	80 83       	st	Z, r24
C:\Users\duan_\AVR\avr_vscode_template\examples\interrupts/src/main.c:23

	SETBITMASK(EICRA, 0x02);  // generates interrupt on falling edge of INT0
 11a:	e9 e6       	ldi	r30, 0x69	; 105
 11c:	f0 e0       	ldi	r31, 0x00	; 0
 11e:	80 81       	ld	r24, Z
 120:	82 60       	ori	r24, 0x02	; 2
 122:	80 83       	st	Z, r24
C:\Users\duan_\AVR\avr_vscode_template\examples\interrupts/src/main.c:24
	SETBIT(EIMSK, INT0);	  // enable external interrupt pin INT0_
 124:	e8 9a       	sbi	0x1d, 0	; 29
C:\Users\duan_\AVR\avr_vscode_template\examples\interrupts/src/main.c:26

	sei();
 126:	78 94       	sei
C:\Users\duan_\AVR\avr_vscode_template\examples\interrupts/src/main.c:27
}
 128:	08 95       	ret

0000012a <__vector_25>:
__vector_25():
C:\Users\duan_\AVR\avr_vscode_template\examples\interrupts/src/main.c:52
	return 0;
}

// handle USART communication by triggering an echo
// when byte is recieved!
ISR(USART0_RX_vect) {
 12a:	1f 92       	push	r1
 12c:	0f 92       	push	r0
 12e:	0f b6       	in	r0, 0x3f	; 63
 130:	0f 92       	push	r0
 132:	11 24       	eor	r1, r1
 134:	0b b6       	in	r0, 0x3b	; 59
 136:	0f 92       	push	r0
 138:	8f 93       	push	r24
 13a:	ef 93       	push	r30
 13c:	ff 93       	push	r31
C:\Users\duan_\AVR\avr_vscode_template\examples\interrupts/src/main.c:54
	char recv_byte;
	recv_byte = UDR0;
 13e:	e6 ec       	ldi	r30, 0xC6	; 198
 140:	f0 e0       	ldi	r31, 0x00	; 0
 142:	80 81       	ld	r24, Z
C:\Users\duan_\AVR\avr_vscode_template\examples\interrupts/src/main.c:55
	UDR0 = recv_byte;
 144:	80 83       	st	Z, r24
C:\Users\duan_\AVR\avr_vscode_template\examples\interrupts/src/main.c:56
}
 146:	ff 91       	pop	r31
 148:	ef 91       	pop	r30
 14a:	8f 91       	pop	r24
 14c:	0f 90       	pop	r0
 14e:	0b be       	out	0x3b, r0	; 59
 150:	0f 90       	pop	r0
 152:	0f be       	out	0x3f, r0	; 63
 154:	0f 90       	pop	r0
 156:	1f 90       	pop	r1
 158:	18 95       	reti

0000015a <__vector_1>:
__vector_1():
C:\Users\duan_\AVR\avr_vscode_template\examples\interrupts/src/main.c:59

// increment a value when a pin change occurs
ISR(INT0_vect) {
 15a:	1f 92       	push	r1
 15c:	0f 92       	push	r0
 15e:	0f b6       	in	r0, 0x3f	; 63
 160:	0f 92       	push	r0
 162:	11 24       	eor	r1, r1
 164:	8f 93       	push	r24
C:\Users\duan_\AVR\avr_vscode_template\examples\interrupts/src/main.c:60
	counter++;
 166:	80 91 00 02 	lds	r24, 0x0200	; 0x800200 <_edata>
 16a:	8f 5f       	subi	r24, 0xFF	; 255
 16c:	80 93 00 02 	sts	0x0200, r24	; 0x800200 <_edata>
C:\Users\duan_\AVR\avr_vscode_template\examples\interrupts/src/main.c:61
 170:	8f 91       	pop	r24
 172:	0f 90       	pop	r0
 174:	0f be       	out	0x3f, r0	; 63
 176:	0f 90       	pop	r0
 178:	1f 90       	pop	r1
 17a:	18 95       	reti

0000017c <main>:
main():
C:\Users\duan_\AVR\avr_vscode_template\examples\interrupts/src/main.c:30

	sei();
}

int main(void) {
	SETBIT(UCSR0B, RXEN0);  // RX on
 17c:	80 91 c1 00 	lds	r24, 0x00C1	; 0x8000c1 <__TEXT_REGION_LENGTH__+0x7000c1>
 180:	80 61       	ori	r24, 0x10	; 16
 182:	80 93 c1 00 	sts	0x00C1, r24	; 0x8000c1 <__TEXT_REGION_LENGTH__+0x7000c1>
C:\Users\duan_\AVR\avr_vscode_template\examples\interrupts/src/main.c:31
	SETBIT(UCSR0B, TXEN0);  // TX on
 186:	80 91 c1 00 	lds	r24, 0x00C1	; 0x8000c1 <__TEXT_REGION_LENGTH__+0x7000c1>
 18a:	88 60       	ori	r24, 0x08	; 8
 18c:	80 93 c1 00 	sts	0x00C1, r24	; 0x8000c1 <__TEXT_REGION_LENGTH__+0x7000c1>
C:\Users\duan_\AVR\avr_vscode_template\examples\interrupts/src/main.c:34

	// write to USART Control and Status Register C
	CLEARBIT(UCSR0C, USBS0);   // 1 stop bit
 190:	80 91 c2 00 	lds	r24, 0x00C2	; 0x8000c2 <__TEXT_REGION_LENGTH__+0x7000c2>
 194:	87 7f       	andi	r24, 0xF7	; 247
 196:	80 93 c2 00 	sts	0x00C2, r24	; 0x8000c2 <__TEXT_REGION_LENGTH__+0x7000c2>
C:\Users\duan_\AVR\avr_vscode_template\examples\interrupts/src/main.c:35
	SETBITMASK(UCSR0C, 0x03);  // 8 bit data
 19a:	80 91 c2 00 	lds	r24, 0x00C2	; 0x8000c2 <__TEXT_REGION_LENGTH__+0x7000c2>
 19e:	83 60       	ori	r24, 0x03	; 3
 1a0:	80 93 c2 00 	sts	0x00C2, r24	; 0x8000c2 <__TEXT_REGION_LENGTH__+0x7000c2>
C:\Users\duan_\AVR\avr_vscode_template\examples\interrupts/src/main.c:37

	UBRR0 = BAUD_PRESCALER;
 1a4:	87 e6       	ldi	r24, 0x67	; 103
 1a6:	90 e0       	ldi	r25, 0x00	; 0
 1a8:	90 93 c5 00 	sts	0x00C5, r25	; 0x8000c5 <__TEXT_REGION_LENGTH__+0x7000c5>
 1ac:	80 93 c4 00 	sts	0x00C4, r24	; 0x8000c4 <__TEXT_REGION_LENGTH__+0x7000c4>
C:\Users\duan_\AVR\avr_vscode_template\examples\interrupts/src/main.c:39

	init_interrupts();
 1b0:	0e 94 88 00 	call	0x110	; 0x110 <init_interrupts()>
C:\Users\duan_\AVR\avr_vscode_template\examples\interrupts/src/main.c:43
	for (;;) {
		// show casing ATOMIC operation, so that ISR and main loop
		// doesn't clobber value at counter!
		ATOMIC_BLOCK(ATOMIC_RESTORESTATE) {
 1b4:	9f b7       	in	r25, 0x3f	; 63
__iCliRetVal():
c:\program files (x86)\arduino\hardware\tools\avr\avr\include\util/atomic.h:50
    return 1;
}

static __inline__ uint8_t __iCliRetVal(void)
{
    cli();
 1b6:	f8 94       	cli
main():
C:\Users\duan_\AVR\avr_vscode_template\examples\interrupts/src/main.c:44
			counter++;
 1b8:	80 91 00 02 	lds	r24, 0x0200	; 0x800200 <_edata>
 1bc:	8f 5f       	subi	r24, 0xFF	; 255
 1be:	80 93 00 02 	sts	0x0200, r24	; 0x800200 <_edata>
__iRestore():
c:\program files (x86)\arduino\hardware\tools\avr\avr\include\util/atomic.h:70
    (void)__s;
}

static __inline__ void __iRestore(const  uint8_t *__s)
{
    SREG = *__s;
 1c2:	9f bf       	out	0x3f, r25	; 63
c:\program files (x86)\arduino\hardware\tools\avr\avr\include\util/atomic.h:71
    __asm__ volatile ("" ::: "memory");
 1c4:	f7 cf       	rjmp	.-18     	; 0x1b4 <main+0x38>

000001c6 <_exit>:
exit():
/home/jenkins-mingw32/workspace/avr-gcc-staging/label/Ubuntu14.04x64-mingw32/gcc-build/avr/avr6/libgcc/../../../../gcc/libgcc/config/avr/lib1funcs.S:2278
 1c6:	f8 94       	cli

000001c8 <__stop_program>:
__stop_program():
/home/jenkins-mingw32/workspace/avr-gcc-staging/label/Ubuntu14.04x64-mingw32/gcc-build/avr/avr6/libgcc/../../../../gcc/libgcc/config/avr/lib1funcs.S:2280
 1c8:	ff cf       	rjmp	.-2      	; 0x1c8 <__stop_program>
